target datalayout = "e-m:e-p270:32:32-p271:32:32-p272:64:64-i64:64-i128:128-f80:128-n8:16:32:64-S128"
target triple = "x86_64-pc-linux-gnu"

%struct.mlib_image = type { i32, i32, i32, i32, i32, i32, ptr, ptr, [4 x i8], i32, i32, [3 x i32] }

; Function Attrs: nounwind uwtable
define internal i32 @mlib_ImageGetChannels(ptr noundef %0) #0 {
  %2 = alloca ptr, align 8
  store ptr %0, ptr %2, align 8
  %3 = load ptr, ptr %2, align 8
  %4 = getelementptr inbounds %struct.mlib_image, ptr %3, i32 0, i32 1
  %5 = load i32, ptr %4, align 4
  ret i32 %5
}

; Function Attrs: nounwind uwtable
define internal i32 @mlib_ImageGetStride(ptr noundef %0) #0 {
  %2 = alloca ptr, align 8
  store ptr %0, ptr %2, align 8
  %3 = load ptr, ptr %2, align 8
  %4 = getelementptr inbounds %struct.mlib_image, ptr %3, i32 0, i32 4
  %5 = load i32, ptr %4, align 8
  ret i32 %5
}

; Function Attrs: nounwind uwtable
define internal i32 @mlib_ImageGetWidth(ptr noundef %0) #0 {
  %2 = alloca ptr, align 8
  store ptr %0, ptr %2, align 8
  %3 = load ptr, ptr %2, align 8
  %4 = getelementptr inbounds %struct.mlib_image, ptr %3, i32 0, i32 2
  %5 = load i32, ptr %4, align 8
  ret i32 %5
}

; Function Attrs: nounwind uwtable
define internal i32 @mlib_ImageGetHeight(ptr noundef %0) #0 {
  %2 = alloca ptr, align 8
  store ptr %0, ptr %2, align 8
  %3 = load ptr, ptr %2, align 8
  %4 = getelementptr inbounds %struct.mlib_image, ptr %3, i32 0, i32 3
  %5 = load i32, ptr %4, align 4
  ret i32 %5
}

; Function Attrs: nounwind uwtable
define internal ptr @mlib_ImageGetData(ptr noundef %0) #0 {
  %2 = alloca ptr, align 8
  store ptr %0, ptr %2, align 8
  %3 = load ptr, ptr %2, align 8
  %4 = getelementptr inbounds %struct.mlib_image, ptr %3, i32 0, i32 6
  %5 = load ptr, ptr %4, align 8
  ret ptr %5
}

; Function Attrs: nounwind uwtable
define internal void @mlib_c_ImageCopy_d64(ptr noundef %0, ptr noundef %1) #0 {
  %3 = alloca ptr, align 8
  %4 = alloca ptr, align 8
  %5 = alloca ptr, align 8
  %6 = alloca ptr, align 8
  %7 = alloca i32, align 4
  %8 = alloca i32, align 4
  %9 = alloca i32, align 4
  %10 = alloca i32, align 4
  %11 = alloca i32, align 4
  %12 = alloca i32, align 4
  %13 = alloca i32, align 4
  %14 = alloca ptr, align 8
  %15 = alloca ptr, align 8
  store ptr %0, ptr %3, align 8
  store ptr %1, ptr %4, align 8
  %16 = load ptr, ptr %3, align 8
  %17 = call ptr @mlib_ImageGetData(ptr noundef %16)
  store ptr %17, ptr %5, align 8
  %18 = load ptr, ptr %4, align 8
  %19 = call ptr @mlib_ImageGetData(ptr noundef %18)
  store ptr %19, ptr %6, align 8
  %20 = load ptr, ptr %3, align 8
  %21 = call i32 @mlib_ImageGetHeight(ptr noundef %20)
  store i32 %21, ptr %7, align 4
  %22 = load ptr, ptr %3, align 8
  %23 = call i32 @mlib_ImageGetWidth(ptr noundef %22)
  store i32 %23, ptr %8, align 4
  %24 = load ptr, ptr %3, align 8
  %25 = call i32 @mlib_ImageGetStride(ptr noundef %24)
  %26 = sext i32 %25 to i64
  %27 = udiv i64 %26, 8
  %28 = trunc i64 %27 to i32
  store i32 %28, ptr %9, align 4
  %29 = load ptr, ptr %4, align 8
  %30 = call i32 @mlib_ImageGetStride(ptr noundef %29)
  %31 = sext i32 %30 to i64
  %32 = udiv i64 %31, 8
  %33 = trunc i64 %32 to i32
  store i32 %33, ptr %10, align 4
  %34 = load ptr, ptr %4, align 8
  %35 = call i32 @mlib_ImageGetChannels(ptr noundef %34)
  store i32 %35, ptr %11, align 4
  %36 = load i32, ptr %11, align 4
  %37 = load i32, ptr %8, align 4
  %38 = mul nsw i32 %37, %36
  store i32 %38, ptr %8, align 4
  %39 = load i32, ptr %8, align 4
  %40 = load i32, ptr %9, align 4
  %41 = icmp eq i32 %39, %40
  br i1 %41, label %42, label %50

42:                                               ; preds = %2
  %43 = load i32, ptr %8, align 4
  %44 = load i32, ptr %10, align 4
  %45 = icmp eq i32 %43, %44
  br i1 %45, label %46, label %50

46:                                               ; preds = %42
  %47 = load i32, ptr %7, align 4
  %48 = load i32, ptr %8, align 4
  %49 = mul nsw i32 %48, %47
  store i32 %49, ptr %8, align 4
  store i32 1, ptr %7, align 4
  br label %50

50:                                               ; preds = %46, %42, %2
  store i32 0, ptr %12, align 4
  br label %51

51:                                               ; preds = %86, %50
  %52 = load i32, ptr %12, align 4
  %53 = load i32, ptr %7, align 4
  %54 = icmp slt i32 %52, %53
  br i1 %54, label %55, label %89

55:                                               ; preds = %51
  %56 = load ptr, ptr %5, align 8
  %57 = load i32, ptr %12, align 4
  %58 = load i32, ptr %9, align 4
  %59 = mul nsw i32 %57, %58
  %60 = sext i32 %59 to i64
  %61 = getelementptr inbounds double, ptr %56, i64 %60
  store ptr %61, ptr %14, align 8
  %62 = load ptr, ptr %6, align 8
  %63 = load i32, ptr %12, align 4
  %64 = load i32, ptr %10, align 4
  %65 = mul nsw i32 %63, %64
  %66 = sext i32 %65 to i64
  %67 = getelementptr inbounds double, ptr %62, i64 %66
  store ptr %67, ptr %15, align 8
  store i32 0, ptr %13, align 4
  br label %68

68:                                               ; preds = %82, %55
  %69 = load i32, ptr %13, align 4
  %70 = load i32, ptr %8, align 4
  %71 = icmp slt i32 %69, %70
  br i1 %71, label %72, label %85

72:                                               ; preds = %68
  %73 = load ptr, ptr %14, align 8
  %74 = load i32, ptr %13, align 4
  %75 = sext i32 %74 to i64
  %76 = getelementptr inbounds double, ptr %73, i64 %75
  %77 = load double, ptr %76, align 8
  %78 = load ptr, ptr %15, align 8
  %79 = load i32, ptr %13, align 4
  %80 = sext i32 %79 to i64
  %81 = getelementptr inbounds double, ptr %78, i64 %80
  store double %77, ptr %81, align 8
  br label %82

82:                                               ; preds = %72
  %83 = load i32, ptr %13, align 4
  %84 = add nsw i32 %83, 1
  store i32 %84, ptr %13, align 4
  br label %68, !llvm.loop !41

85:                                               ; preds = %68
  br label %86

86:                                               ; preds = %85
  %87 = load i32, ptr %12, align 4
  %88 = add nsw i32 %87, 1
  store i32 %88, ptr %12, align 4
  br label %51, !llvm.loop !42

89:                                               ; preds = %51
  ret void
}