; Function Attrs: nofree norecurse nosync nounwind memory(readwrite, inaccessiblemem: none) uwtable
define internal fastcc void @mlib_c_ImageCopy_d64(ptr nocapture noundef readonly %0, ptr nocapture noundef readonly %1) unnamed_addr #1 {
  %3 = getelementptr i8, ptr %0, i64 24
  %.val37 = load ptr, ptr %3, align 8
  %4 = getelementptr i8, ptr %1, i64 24
  %.val36 = load ptr, ptr %4, align 8
  %5 = getelementptr i8, ptr %0, i64 12
  %.val35 = load i32, ptr %5, align 4
  %6 = getelementptr i8, ptr %0, i64 8
  %.val34 = load i32, ptr %6, align 8
  %7 = getelementptr i8, ptr %0, i64 16
  %.val39 = load i32, ptr %7, align 8
  %8 = ashr i32 %.val39, 3
  %9 = getelementptr i8, ptr %1, i64 16
  %.val38 = load i32, ptr %9, align 8
  %10 = ashr i32 %.val38, 3
  %11 = getelementptr i8, ptr %1, i64 4
  %.val = load i32, ptr %11, align 4
  %12 = mul nsw i32 %.val, %.val34
  %13 = icmp eq i32 %12, %8
  %14 = icmp eq i32 %12, %10
  %or.cond = select i1 %13, i1 %14, i1 false
  %15 = select i1 %or.cond, i32 %.val35, i32 1
  %.030 = mul i32 %15, %12
  %.0 = select i1 %or.cond, i32 1, i32 %.val35
  %16 = icmp sgt i32 %.0, 0
  %17 = icmp sgt i32 %.030, 0
  %or.cond53 = select i1 %16, i1 %17, i1 false
  br i1 %or.cond53, label %.lr.ph.us.preheader, label %._crit_edge44

.lr.ph.us.preheader:                              ; preds = %2
  %18 = sext i32 %8 to i64
  %19 = sext i32 %10 to i64
  %wide.trip.count51 = zext nneg i32 %.0 to i64
  %wide.trip.count = zext nneg i32 %.030 to i64
  br label %.lr.ph.us

.lr.ph.us:                                        ; preds = %.lr.ph.us.preheader, %._crit_edge.us
  %indvars.iv48 = phi i64 [ 0, %.lr.ph.us.preheader ], [ %indvars.iv.next49, %._crit_edge.us ]
  %20 = mul nsw i64 %indvars.iv48, %18
  %21 = getelementptr inbounds double, ptr %.val37, i64 %20
  %22 = mul nsw i64 %indvars.iv48, %19
  %23 = getelementptr inbounds double, ptr %.val36, i64 %22
  br label %24

24:                                               ; preds = %.lr.ph.us, %24
  %indvars.iv = phi i64 [ 0, %.lr.ph.us ], [ %indvars.iv.next, %24 ]
  %25 = getelementptr inbounds double, ptr %21, i64 %indvars.iv
  %26 = load double, ptr %25, align 8
  %27 = getelementptr inbounds double, ptr %23, i64 %indvars.iv
  store double %26, ptr %27, align 8
  %indvars.iv.next = add nuw nsw i64 %indvars.iv, 1
  %exitcond.not = icmp eq i64 %indvars.iv.next, %wide.trip.count
  br i1 %exitcond.not, label %._crit_edge.us, label %24, !llvm.loop !41

._crit_edge.us:                                   ; preds = %24
  %indvars.iv.next49 = add nuw nsw i64 %indvars.iv48, 1
  %exitcond52.not = icmp eq i64 %indvars.iv.next49, %wide.trip.count51
  br i1 %exitcond52.not, label %._crit_edge44, label %.lr.ph.us, !llvm.loop !42

._crit_edge44:                                    ; preds = %._crit_edge.us, %2
  ret void
}